; Function Attrs: mustprogress nounwind uwtable
define dso_local void @_ZN4llvm14MachineOperand25printStackObjectReferenceERNS_11raw_ostreamEjbNS_9StringRefE(ptr noundef nonnull align 8 dereferenceable(48) %0, i32 noundef %1, i1 noundef zeroext %2, ptr %3, i64 %4) local_unnamed_addr #0 align 2 {
  %6 = getelementptr inbounds nuw i8, ptr %0, i64 24
  %7 = load ptr, ptr %6, align 8
  %8 = getelementptr inbounds nuw i8, ptr %0, i64 32
  %9 = load ptr, ptr %8, align 8
  %10 = ptrtoint ptr %7 to i64
  %11 = ptrtoint ptr %9 to i64
  %12 = sub i64 %10, %11
  br i1 %2, label %13, label %22

13:                                               ; preds = %5
  %14 = icmp ult i64 %12, 13
  br i1 %14, label %15, label %17

15:                                               ; preds = %13
  %16 = tail call noundef nonnull align 8 dereferenceable(48) ptr @_ZN4llvm11raw_ostream5writeEPKcm(ptr noundef nonnull align 8 dereferenceable(48) %0, ptr noundef nonnull @.str.11, i64 noundef 13) #21
  br label %_ZN4llvm11raw_ostreamlsEPKc.exit

17:                                               ; preds = %13
  tail call void @llvm.memcpy.p0.p0.i64(ptr noundef nonnull align 1 dereferenceable(13) %9, ptr noundef nonnull align 1 dereferenceable(13) @.str.11, i64 13, i1 false)
  %18 = load ptr, ptr %8, align 8
  %19 = getelementptr inbounds nuw i8, ptr %18, i64 13
  store ptr %19, ptr %8, align 8
  br label %_ZN4llvm11raw_ostreamlsEPKc.exit

_ZN4llvm11raw_ostreamlsEPKc.exit:                 ; preds = %15, %17
  %.0.i.i = phi ptr [ %16, %15 ], [ %0, %17 ]
  %20 = zext i32 %1 to i64
  %21 = tail call noundef nonnull align 8 dereferenceable(48) ptr @_ZN4llvm11raw_ostreamlsEm(ptr noundef nonnull align 8 dereferenceable(48) %.0.i.i, i64 noundef %20) #21
  br label %_ZN4llvm11raw_ostreamlsENS_9StringRefE.exit

22:                                               ; preds = %5
  %23 = icmp ult i64 %12, 7
  br i1 %23, label %24, label %26

24:                                               ; preds = %22
  %25 = tail call noundef nonnull align 8 dereferenceable(48) ptr @_ZN4llvm11raw_ostream5writeEPKcm(ptr noundef nonnull align 8 dereferenceable(48) %0, ptr noundef nonnull @.str.12, i64 noundef 7) #21
  br label %_ZN4llvm11raw_ostreamlsEPKc.exit7

26:                                               ; preds = %22
  tail call void @llvm.memcpy.p0.p0.i64(ptr noundef nonnull align 1 dereferenceable(7) %9, ptr noundef nonnull align 1 dereferenceable(7) @.str.12, i64 7, i1 false)
  %27 = load ptr, ptr %8, align 8
  %28 = getelementptr inbounds nuw i8, ptr %27, i64 7
  store ptr %28, ptr %8, align 8
  br label %_ZN4llvm11raw_ostreamlsEPKc.exit7

_ZN4llvm11raw_ostreamlsEPKc.exit7:                ; preds = %24, %26
  %.0.i.i6 = phi ptr [ %25, %24 ], [ %0, %26 ]
  %29 = zext i32 %1 to i64
  %30 = tail call noundef nonnull align 8 dereferenceable(48) ptr @_ZN4llvm11raw_ostreamlsEm(ptr noundef nonnull align 8 dereferenceable(48) %.0.i.i6, i64 noundef %29) #21
  %31 = icmp eq i64 %4, 0
  br i1 %31, label %_ZN4llvm11raw_ostreamlsENS_9StringRefE.exit, label %32

32:                                               ; preds = %_ZN4llvm11raw_ostreamlsEPKc.exit7
  %33 = load ptr, ptr %8, align 8
  %34 = load ptr, ptr %6, align 8
  %.not.i = icmp ult ptr %33, %34
  br i1 %.not.i, label %37, label %35

35:                                               ; preds = %32
  %36 = tail call noundef nonnull align 8 dereferenceable(48) ptr @_ZN4llvm11raw_ostream5writeEh(ptr noundef nonnull align 8 dereferenceable(48) %0, i8 noundef zeroext 46) #21
  br label %_ZN4llvm11raw_ostreamlsEc.exit

37:                                               ; preds = %32
  %38 = getelementptr inbounds nuw i8, ptr %33, i64 1
  store ptr %38, ptr %8, align 8
  store i8 46, ptr %33, align 1
  br label %_ZN4llvm11raw_ostreamlsEc.exit

_ZN4llvm11raw_ostreamlsEc.exit:                   ; preds = %35, %37
  %.0.i = phi ptr [ %36, %35 ], [ %0, %37 ]
  %39 = getelementptr inbounds nuw i8, ptr %.0.i, i64 24
  %40 = load ptr, ptr %39, align 8
  %41 = getelementptr inbounds nuw i8, ptr %.0.i, i64 32
  %42 = load ptr, ptr %41, align 8
  %43 = ptrtoint ptr %40 to i64
  %44 = ptrtoint ptr %42 to i64
  %45 = sub i64 %43, %44
  %46 = icmp ugt i64 %4, %45
  br i1 %46, label %47, label %49

47:                                               ; preds = %_ZN4llvm11raw_ostreamlsEc.exit
  %48 = tail call noundef nonnull align 8 dereferenceable(48) ptr @_ZN4llvm11raw_ostream5writeEPKcm(ptr noundef nonnull align 8 dereferenceable(48) %.0.i, ptr noundef %3, i64 noundef %4) #21
  br label %_ZN4llvm11raw_ostreamlsENS_9StringRefE.exit

49:                                               ; preds = %_ZN4llvm11raw_ostreamlsEc.exit
  tail call void @llvm.memcpy.p0.p0.i64(ptr align 1 %42, ptr align 1 %3, i64 %4, i1 false)
  %50 = load ptr, ptr %41, align 8
  %51 = getelementptr inbounds i8, ptr %50, i64 %4
  store ptr %51, ptr %41, align 8
  br label %_ZN4llvm11raw_ostreamlsENS_9StringRefE.exit

_ZN4llvm11raw_ostreamlsENS_9StringRefE.exit:      ; preds = %49, %47, %_ZN4llvm11raw_ostreamlsEPKc.exit7, %_ZN4llvm11raw_ostreamlsEPKc.exit
  ret void
}